(dp0
S'allergens'
p1
S"(lp1\nccopy_reg\n_reconstructor\np2\n(cmenuproject.models\nAllergen\np3\nc__builtin__\nobject\np4\nNtRp5\n(dp6\nS'_sa_instance_state'\np7\ng2\n(csqlalchemy.orm.state\nInstanceState\np8\ng4\nNtRp9\n(dp10\nS'class_'\np11\ng3\nsS'modified'\np12\nI00\nsS'committed_state'\np13\n(dp14\nsS'instance'\np15\ng5\nsS'callables'\np16\n(dp17\nsS'key'\np18\n(g3\n(L1L\nttp19\nsS'expired'\np20\nI00\nsbsS'id'\np21\nL1L\nsS'allergen'\np22\nS'Seafood'\np23\nsS'menu_item_id'\np24\nL1L\nsbag2\n(g3\ng4\nNtRp25\n(dp26\ng7\ng2\n(g8\ng4\nNtRp27\n(dp28\ng11\ng3\nsg12\nI00\nsg13\n(dp29\nsg15\ng25\nsg16\n(dp30\nsg18\n(g3\n(L2L\nttp31\nsg20\nI00\nsbsg21\nL2L\nsg22\nS'Dairy'\np32\nsg24\nL3L\nsbag2\n(g3\ng4\nNtRp33\n(dp34\ng7\ng2\n(g8\ng4\nNtRp35\n(dp36\ng11\ng3\nsg12\nI00\nsg13\n(dp37\nsg15\ng33\nsg16\n(dp38\nsg18\n(g3\n(L3L\nttp39\nsg20\nI00\nsbsg21\nL3L\nsg22\nS'Vegan'\np40\nsg24\nL4L\nsbag2\n(g3\ng4\nNtRp41\n(dp42\ng7\ng2\n(g8\ng4\nNtRp43\n(dp44\ng11\ng3\nsg12\nI00\nsg13\n(dp45\nsg15\ng41\nsg16\n(dp46\nsg18\n(g3\n(L4L\nttp47\nsg20\nI00\nsbsg21\nL4L\nsg22\nS'Dairy'\np48\nsg24\nL6L\nsbag2\n(g3\ng4\nNtRp49\n(dp50\ng7\ng2\n(g8\ng4\nNtRp51\n(dp52\ng11\ng3\nsg12\nI00\nsg13\n(dp53\nsg15\ng49\nsg16\n(dp54\nsg18\n(g3\n(L5L\nttp55\nsg20\nI00\nsbsg21\nL5L\nsg22\nS'Spicy'\np56\nsg24\nL7L\nsbag2\n(g3\ng4\nNtRp57\n(dp58\ng7\ng2\n(g8\ng4\nNtRp59\n(dp60\ng11\ng3\nsg12\nI00\nsg13\n(dp61\nsg15\ng57\nsg16\n(dp62\nsg18\n(g3\n(L6L\nttp63\nsg20\nI00\nsbsg21\nL6L\nsg22\nS'Vegan'\np64\nsg24\nL8L\nsbag2\n(g3\ng4\nNtRp65\n(dp66\ng7\ng2\n(g8\ng4\nNtRp67\n(dp68\ng11\ng3\nsg12\nI00\nsg13\n(dp69\nsg15\ng65\nsg16\n(dp70\nsg18\n(g3\n(L7L\nttp71\nsg20\nI00\nsbsg21\nL7L\nsg22\nS'Vegan'\np72\nsg24\nL9L\nsbag2\n(g3\ng4\nNtRp73\n(dp74\ng7\ng2\n(g8\ng4\nNtRp75\n(dp76\ng11\ng3\nsg12\nI00\nsg13\n(dp77\nsg15\ng73\nsg16\n(dp78\nsg18\n(g3\n(L8L\nttp79\nsg20\nI00\nsbsg21\nL8L\nsg22\nS'Vegan'\np80\nsg24\nL10L\nsbag2\n(g3\ng4\nNtRp81\n(dp82\ng7\ng2\n(g8\ng4\nNtRp83\n(dp84\ng11\ng3\nsg12\nI00\nsg13\n(dp85\nsg15\ng81\nsg16\n(dp86\nsg18\n(g3\n(L9L\nttp87\nsg20\nI00\nsbsg21\nL9L\nsg22\nS'Seafood'\np88\nsg24\nL11L\nsbag2\n(g3\ng4\nNtRp89\n(dp90\ng7\ng2\n(g8\ng4\nNtRp91\n(dp92\ng11\ng3\nsg12\nI00\nsg13\n(dp93\nsg15\ng89\nsg16\n(dp94\nsg18\n(g3\n(L10L\nttp95\nsg20\nI00\nsbsg21\nL10L\nsg22\nS'Vegan'\np96\nsg24\nL12L\nsbag2\n(g3\ng4\nNtRp97\n(dp98\ng7\ng2\n(g8\ng4\nNtRp99\n(dp100\ng11\ng3\nsg12\nI00\nsg13\n(dp101\nsg15\ng97\nsg16\n(dp102\nsg18\n(g3\n(L11L\nttp103\nsg20\nI00\nsbsg21\nL11L\nsg22\nS'Vegan'\np104\nsg24\nL13L\nsbag2\n(g3\ng4\nNtRp105\n(dp106\ng7\ng2\n(g8\ng4\nNtRp107\n(dp108\ng11\ng3\nsg12\nI00\nsg13\n(dp109\nsg15\ng105\nsg16\n(dp110\nsg18\n(g3\n(L12L\nttp111\nsg20\nI00\nsbsg21\nL12L\nsg22\nS'Spicy'\np112\nsg24\nL14L\nsbag2\n(g3\ng4\nNtRp113\n(dp114\ng7\ng2\n(g8\ng4\nNtRp115\n(dp116\ng11\ng3\nsg12\nI00\nsg13\n(dp117\nsg15\ng113\nsg16\n(dp118\nsg18\n(g3\n(L13L\nttp119\nsg20\nI00\nsbsg21\nL13L\nsg22\nS'Spicy'\np120\nsg24\nL15L\nsbag2\n(g3\ng4\nNtRp121\n(dp122\ng7\ng2\n(g8\ng4\nNtRp123\n(dp124\ng11\ng3\nsg12\nI00\nsg13\n(dp125\nsg15\ng121\nsg16\n(dp126\nsg18\n(g3\n(L14L\nttp127\nsg20\nI00\nsbsg21\nL14L\nsg22\nS'Vegan'\np128\nsg24\nL16L\nsbag2\n(g3\ng4\nNtRp129\n(dp130\ng7\ng2\n(g8\ng4\nNtRp131\n(dp132\ng11\ng3\nsg12\nI00\nsg13\n(dp133\nsg15\ng129\nsg16\n(dp134\nsg18\n(g3\n(L15L\nttp135\nsg20\nI00\nsbsg21\nL15L\nsg22\nS'Vegan'\np136\nsg24\nL17L\nsbag2\n(g3\ng4\nNtRp137\n(dp138\ng7\ng2\n(g8\ng4\nNtRp139\n(dp140\ng11\ng3\nsg12\nI00\nsg13\n(dp141\nsg15\ng137\nsg16\n(dp142\nsg18\n(g3\n(L16L\nttp143\nsg20\nI00\nsbsg21\nL16L\nsg22\nS'Vegan'\np144\nsg24\nL18L\nsbag2\n(g3\ng4\nNtRp145\n(dp146\ng7\ng2\n(g8\ng4\nNtRp147\n(dp148\ng11\ng3\nsg12\nI00\nsg13\n(dp149\nsg15\ng145\nsg16\n(dp150\nsg18\n(g3\n(L17L\nttp151\nsg20\nI00\nsbsg21\nL17L\nsg22\nS'Nuts'\np152\nsg24\nL10L\nsbag2\n(g3\ng4\nNtRp153\n(dp154\ng7\ng2\n(g8\ng4\nNtRp155\n(dp156\ng11\ng3\nsg12\nI00\nsg13\n(dp157\nsg15\ng153\nsg16\n(dp158\nsg18\n(g3\n(L45L\nttp159\nsg20\nI00\nsbsg21\nL45L\nsg22\nS'Gluten-free'\np160\nsg24\nL23L\nsbag2\n(g3\ng4\nNtRp161\n(dp162\ng7\ng2\n(g8\ng4\nNtRp163\n(dp164\ng11\ng3\nsg12\nI00\nsg13\n(dp165\nsg15\ng161\nsg16\n(dp166\nsg18\n(g3\n(L25L\nttp167\nsg20\nI00\nsbsg21\nL25L\nsg22\nS'Vegan'\np168\nsg24\nL21L\nsbag2\n(g3\ng4\nNtRp169\n(dp170\ng7\ng2\n(g8\ng4\nNtRp171\n(dp172\ng11\ng3\nsg12\nI00\nsg13\n(dp173\nsg15\ng169\nsg16\n(dp174\nsg18\n(g3\n(L26L\nttp175\nsg20\nI00\nsbsg21\nL26L\nsg22\nS'Gluten-free'\np176\nsg24\nL21L\nsbag2\n(g3\ng4\nNtRp177\n(dp178\ng7\ng2\n(g8\ng4\nNtRp179\n(dp180\ng11\ng3\nsg12\nI00\nsg13\n(dp181\nsg15\ng177\nsg16\n(dp182\nsg18\n(g3\n(L27L\nttp183\nsg20\nI00\nsbsg21\nL27L\nsg22\nS'Spicy'\np184\nsg24\nL22L\nsbag2\n(g3\ng4\nNtRp185\n(dp186\ng7\ng2\n(g8\ng4\nNtRp187\n(dp188\ng11\ng3\nsg12\nI00\nsg13\n(dp189\nsg15\ng185\nsg16\n(dp190\nsg18\n(g3\n(L28L\nttp191\nsg20\nI00\nsbsg21\nL28L\nsg22\nS'Gluten-free'\np192\nsg24\nL22L\nsbag2\n(g3\ng4\nNtRp193\n(dp194\ng7\ng2\n(g8\ng4\nNtRp195\n(dp196\ng11\ng3\nsg12\nI00\nsg13\n(dp197\nsg15\ng193\nsg16\n(dp198\nsg18\n(g3\n(L30L\nttp199\nsg20\nI00\nsbsg21\nL30L\nsg22\nS'Spicy'\np200\nsg24\nL23L\nsbag2\n(g3\ng4\nNtRp201\n(dp202\ng7\ng2\n(g8\ng4\nNtRp203\n(dp204\ng11\ng3\nsg12\nI00\nsg13\n(dp205\nsg15\ng201\nsg16\n(dp206\nsg18\n(g3\n(L32L\nttp207\nsg20\nI00\nsbsg21\nL32L\nsg22\nS'Gluten-free'\np208\nsg24\nL24L\nsbag2\n(g3\ng4\nNtRp209\n(dp210\ng7\ng2\n(g8\ng4\nNtRp211\n(dp212\ng11\ng3\nsg12\nI00\nsg13\n(dp213\nsg15\ng209\nsg16\n(dp214\nsg18\n(g3\n(L33L\nttp215\nsg20\nI00\nsbsg21\nL33L\nsg22\nS'Dairy'\np216\nsg24\nL26L\nsbag2\n(g3\ng4\nNtRp217\n(dp218\ng7\ng2\n(g8\ng4\nNtRp219\n(dp220\ng11\ng3\nsg12\nI00\nsg13\n(dp221\nsg15\ng217\nsg16\n(dp222\nsg18\n(g3\n(L34L\nttp223\nsg20\nI00\nsbsg21\nL34L\nsg22\nS'Spicy'\np224\nsg24\nL26L\nsbag2\n(g3\ng4\nNtRp225\n(dp226\ng7\ng2\n(g8\ng4\nNtRp227\n(dp228\ng11\ng3\nsg12\nI00\nsg13\n(dp229\nsg15\ng225\nsg16\n(dp230\nsg18\n(g3\n(L42L\nttp231\nsg20\nI00\nsbsg21\nL42L\nsg22\nS'Gluten-free'\np232\nsg24\nL31L\nsbag2\n(g3\ng4\nNtRp233\n(dp234\ng7\ng2\n(g8\ng4\nNtRp235\n(dp236\ng11\ng3\nsg12\nI00\nsg13\n(dp237\nsg15\ng233\nsg16\n(dp238\nsg18\n(g3\n(L37L\nttp239\nsg20\nI00\nsbsg21\nL37L\nsg22\nS'Dairy'\np240\nsg24\nL28L\nsbag2\n(g3\ng4\nNtRp241\n(dp242\ng7\ng2\n(g8\ng4\nNtRp243\n(dp244\ng11\ng3\nsg12\nI00\nsg13\n(dp245\nsg15\ng241\nsg16\n(dp246\nsg18\n(g3\n(L39L\nttp247\nsg20\nI00\nsbsg21\nL39L\nsg22\nS'Dairy'\np248\nsg24\nL29L\nsbag2\n(g3\ng4\nNtRp249\n(dp250\ng7\ng2\n(g8\ng4\nNtRp251\n(dp252\ng11\ng3\nsg12\nI00\nsg13\n(dp253\nsg15\ng249\nsg16\n(dp254\nsg18\n(g3\n(L40L\nttp255\nsg20\nI00\nsbsg21\nL40L\nsg22\nS'Dairy'\np256\nsg24\nL30L\nsbag2\n(g3\ng4\nNtRp257\n(dp258\ng7\ng2\n(g8\ng4\nNtRp259\n(dp260\ng11\ng3\nsg12\nI00\nsg13\n(dp261\nsg15\ng257\nsg16\n(dp262\nsg18\n(g3\n(L41L\nttp263\nsg20\nI00\nsbsg21\nL41L\nsg22\nS'Spicy'\np264\nsg24\nL29L\nsbag2\n(g3\ng4\nNtRp265\n(dp266\ng7\ng2\n(g8\ng4\nNtRp267\n(dp268\ng11\ng3\nsg12\nI00\nsg13\n(dp269\nsg15\ng265\nsg16\n(dp270\nsg18\n(g3\n(L43L\nttp271\nsg20\nI00\nsbsg21\nL43L\nsg22\nS'Nuts'\np272\nsg24\nL21L\nsbag2\n(g3\ng4\nNtRp273\n(dp274\ng7\ng2\n(g8\ng4\nNtRp275\n(dp276\ng11\ng3\nsg12\nI00\nsg13\n(dp277\nsg15\ng273\nsg16\n(dp278\nsg18\n(g3\n(L44L\nttp279\nsg20\nI00\nsbsg21\nL44L\nsg22\nS'Dairy'\np280\nsg24\nL21L\nsba."
p2
sS'menus'
p3
S"(lp1\nccopy_reg\n_reconstructor\np2\n(cmenuproject.models\nMenu\np3\nc__builtin__\nobject\np4\nNtRp5\n(dp6\nS'_sa_instance_state'\np7\ng2\n(csqlalchemy.orm.state\nInstanceState\np8\ng4\nNtRp9\n(dp10\nS'class_'\np11\ng3\nsS'modified'\np12\nI00\nsS'committed_state'\np13\n(dp14\nsS'instance'\np15\ng5\nsS'callables'\np16\n(dp17\nsS'key'\np18\n(g3\n(L1L\nttp19\nsS'expired'\np20\nI00\nsbsS'name'\np21\nS'Pizza and Cactus Cooler'\np22\nsS'time_sort_key'\np23\nL2L\nsS'menus'\np24\nS'1 2 3 4 5 6 7 8 9'\np25\nsS'date'\np26\ncdatetime\ndate\np27\n(S'\\x07\\xdc\\x07\\n'\np28\ntRp29\nsS'id'\np30\nL1L\nsbag2\n(g3\ng4\nNtRp31\n(dp32\ng7\ng2\n(g8\ng4\nNtRp33\n(dp34\ng11\ng3\nsg12\nI00\nsg13\n(dp35\nsg15\ng31\nsg16\n(dp36\nsg18\n(g3\n(L2L\nttp37\nsg20\nI00\nsbsg21\nS'Shalimar and Gummy Bears'\np38\nsg23\nL2L\nsg24\nS'10 11 12 13 14 15 16 17 18'\np39\nsg26\ng27\n(S'\\x07\\xdc\\x07\\x0b'\np40\ntRp41\nsg30\nL2L\nsbag2\n(g3\ng4\nNtRp42\n(dp43\ng7\ng2\n(g8\ng4\nNtRp44\n(dp45\ng11\ng3\nsg12\nI00\nsg13\n(dp46\nsg15\ng42\nsg16\n(dp47\nsg18\n(g3\n(L3L\nttp48\nsg20\nI00\nsbsg21\nS'long dish name bbb'\np49\nsg23\nL2L\nsg24\nS'24'\np50\nsg26\ng27\n(S'\\x07\\xdc\\x07\\x1d'\np51\ntRp52\nsg30\nL3L\nsbag2\n(g3\ng4\nNtRp53\n(dp54\ng7\ng2\n(g8\ng4\nNtRp55\n(dp56\ng11\ng3\nsg12\nI00\nsg13\n(dp57\nsg15\ng53\nsg16\n(dp58\nsg18\n(g3\n(L4L\nttp59\nsg20\nI00\nsbsg21\nS'another fisj dinner meal'\np60\nsg23\nL3L\nsg24\nS'21 22'\np61\nsg26\ng27\n(S'\\x07\\xdc\\x07\\x17'\np62\ntRp63\nsg30\nL4L\nsbag2\n(g3\ng4\nNtRp64\n(dp65\ng7\ng2\n(g8\ng4\nNtRp66\n(dp67\ng11\ng3\nsg12\nI00\nsg13\n(dp68\nsg15\ng64\nsg16\n(dp69\nsg18\n(g3\n(L5L\nttp70\nsg20\nI00\nsbsg21\nS'working out meal and this is crazy cause its dairy'\np71\nsg23\nL2L\nsg24\nS'23'\np72\nsg26\ng27\n(S'\\x07\\xdc\\x07\\x18'\np73\ntRp74\nsg30\nL5L\nsbag2\n(g3\ng4\nNtRp75\n(dp76\ng7\ng2\n(g8\ng4\nNtRp77\n(dp78\ng11\ng3\nsg12\nI00\nsg13\n(dp79\nsg15\ng75\nsg16\n(dp80\nsg18\n(g3\n(L6L\nttp81\nsg20\nI00\nsbsg21\nS'another test fj'\np82\nsg23\nL2L\nsg24\nS'26 25 28'\np83\nsg26\ng27\n(S'\\x07\\xdc\\x07\\x1e'\np84\ntRp85\nsg30\nL6L\nsbag2\n(g3\ng4\nNtRp86\n(dp87\ng7\ng2\n(g8\ng4\nNtRp88\n(dp89\ng11\ng3\nsg12\nI00\nsg13\n(dp90\nsg15\ng86\nsg16\n(dp91\nsg18\n(g3\n(L7L\nttp92\nsg20\nI00\nsbsg21\nS'dish 1 yeah!!! sure'\np93\nsg23\nL3L\nsg24\nS'29'\np94\nsg26\ng27\n(S'\\x07\\xdc\\x07\\x1f'\np95\ntRp96\nsg30\nL7L\nsbag2\n(g3\ng4\nNtRp97\n(dp98\ng7\ng2\n(g8\ng4\nNtRp99\n(dp100\ng11\ng3\nsg12\nI00\nsg13\n(dp101\nsg15\ng97\nsg16\n(dp102\nsg18\n(g3\n(L8L\nttp103\nsg20\nI00\nsbsg21\nS'test test test'\np104\nsg23\nL2L\nsg24\nS'30'\np105\nsg26\ng27\n(S'\\x07\\xdc\\x07\\x17'\np106\ntRp107\nsg30\nL8L\nsbag2\n(g3\ng4\nNtRp108\n(dp109\ng7\ng2\n(g8\ng4\nNtRp110\n(dp111\ng11\ng3\nsg12\nI00\nsg13\n(dp112\nsg15\ng108\nsg16\n(dp113\nsg18\n(g3\n(L9L\nttp114\nsg20\nI00\nsbsg21\nS'some Saut\\xc3\\xa9ed '\np115\nsg23\nL2L\nsg24\nS'31'\np116\nsg26\ng27\n(S'\\x07\\xdc\\x07\\x19'\np117\ntRp118\nsg30\nL9L\nsba."
p4
sS'menu_items'
p5
S'(lp1\nccopy_reg\n_reconstructor\np2\n(cmenuproject.models\nMenuItem\np3\nc__builtin__\nobject\np4\nNtRp5\n(dp6\nS\'menu_id\'\np7\nL1L\nsS\'description\'\np8\nS\'Asian style Ahi tuna tartar with crispy gyoza wrap\'\np9\nsS\'_sa_instance_state\'\np10\ng2\n(csqlalchemy.orm.state\nInstanceState\np11\ng4\nNtRp12\n(dp13\nS\'class_\'\np14\ng3\nsS\'modified\'\np15\nI00\nsS\'committed_state\'\np16\n(dp17\nsS\'instance\'\np18\ng5\nsS\'callables\'\np19\n(dp20\nsS\'key\'\np21\n(g3\n(L1L\nttp22\nsS\'expired\'\np23\nI00\nsbsS\'id\'\np24\nL1L\nsS\'name\'\np25\nS\'Amuse bouche\'\np26\nsbag2\n(g3\ng4\nNtRp27\n(dp28\ng7\nL1L\nsg8\nS\'\'\nsg10\ng2\n(g11\ng4\nNtRp29\n(dp30\ng14\ng3\nsg15\nI00\nsg16\n(dp31\nsg18\ng27\nsg19\n(dp32\nsg21\n(g3\n(L2L\nttp33\nsg23\nI00\nsbsg24\nL2L\nsg25\nS"Eggplant \'caviar\'"\np34\nsbag2\n(g3\ng4\nNtRp35\n(dp36\ng7\nL1L\nsg8\nS\'with confetti of bell peppers and cucumbers\'\np37\nsg10\ng2\n(g11\ng4\nNtRp38\n(dp39\ng14\ng3\nsg15\nI00\nsg16\n(dp40\nsg18\ng35\nsg19\n(dp41\nsg21\n(g3\n(L3L\nttp42\nsg23\nI00\nsbsg24\nL3L\nsg25\nS\'Melo-melo of red and white gazpacho soup\'\np43\nsbag2\n(g3\ng4\nNtRp44\n(dp45\ng7\nL1L\nsg8\nS\'Roasted baby beets, fire-roasted cippolini onions, \\nFava beans and extra virgin croutons\'\np46\nsg10\ng2\n(g11\ng4\nNtRp47\n(dp48\ng14\ng3\nsg15\nI00\nsg16\n(dp49\nsg18\ng44\nsg19\n(dp50\nsg21\n(g3\n(L4L\nttp51\nsg23\nI00\nsbsg24\nL4L\nsg25\nS\'Baby assorted lettuces drizzled with mustardy vinaigrette\'\np52\nsbag2\n(g3\ng4\nNtRp53\n(dp54\ng7\nL1L\nsg8\nS\'Miso glazed spinach and roasted garlic, wasabi mashed potatoes\'\np55\nsg10\ng2\n(g11\ng4\nNtRp56\n(dp57\ng14\ng3\nsg15\nI00\nsg16\n(dp58\nsg18\ng53\nsg19\n(dp59\nsg21\n(g3\n(L5L\nttp60\nsg23\nI00\nsbsg24\nL5L\nsg25\nS\'Crispy skin Loche Duart salmon medallions\'\np61\nsbag2\n(g3\ng4\nNtRp62\n(dp63\ng7\nL1L\nsg8\nS\'House-made apricot ham, dill and fig puree\'\np64\nsg10\ng2\n(g11\ng4\nNtRp65\n(dp66\ng14\ng3\nsg15\nI00\nsg16\n(dp67\nsg18\ng62\nsg19\n(dp68\nsg21\n(g3\n(L6L\nttp69\nsg23\nI00\nsbsg24\nL6L\nsg25\nS\'Baked European eggplant with garlicky yogurt\'\np70\nsbag2\n(g3\ng4\nNtRp71\n(dp72\ng7\nL1L\nsg8\nS\'Pureed celeriac, parsnips and truffles, \\nGrilled spring onions, and asparagus\'\np73\nsg10\ng2\n(g11\ng4\nNtRp74\n(dp75\ng14\ng3\nsg15\nI00\nsg16\n(dp76\nsg18\ng71\nsg19\n(dp77\nsg21\n(g3\n(L7L\nttp78\nsg23\nI00\nsbsg24\nL7L\nsg25\nS\'Beer butt roasted chicken\'\np79\nsbag2\n(g3\ng4\nNtRp80\n(dp81\ng7\nL1L\nsg8\nS\'Scallions and cherry confit tomatoes\'\np82\nsg10\ng2\n(g11\ng4\nNtRp83\n(dp84\ng14\ng3\nsg15\nI00\nsg16\n(dp85\nsg18\ng80\nsg19\n(dp86\nsg21\n(g3\n(L8L\nttp87\nsg23\nI00\nsbsg24\nL8L\nsg25\nS\'Barley risotto with wild mushrooms and artichokes\'\np88\nsbag2\n(g3\ng4\nNtRp89\n(dp90\ng7\nL1L\nsg8\nS\'\'\nsg10\ng2\n(g11\ng4\nNtRp91\n(dp92\ng14\ng3\nsg15\nI00\nsg16\n(dp93\nsg18\ng89\nsg19\n(dp94\nsg21\n(g3\n(L9L\nttp95\nsg23\nI00\nsbsg24\nL9L\nsg25\nS\'Melon and tarragon soup\'\np96\nsbag2\n(g3\ng4\nNtRp97\n(dp98\ng7\nL2L\nsg8\nS\'glazed with garlic confit and Heirloom tomatoes, \\nbuttermilk mashed potatoes, \\nsteamed summer vegetables\'\np99\nsg10\ng2\n(g11\ng4\nNtRp100\n(dp101\ng14\ng3\nsg15\nI00\nsg16\n(dp102\nsg18\ng97\nsg19\n(dp103\nsg21\n(g3\n(L10L\nttp104\nsg23\nI00\nsbsg24\nL10L\nsg25\nS\'Roasted studded garlic pork loin\'\np105\nsbag2\n(g3\ng4\nNtRp106\n(dp107\ng7\nL2L\nsg8\nS\'Lime mayonnaise carrot, cabbage slaw, \\nLemon aioli\'\np108\nsg10\ng2\n(g11\ng4\nNtRp109\n(dp110\ng14\ng3\nsg15\nI00\nsg16\n(dp111\nsg18\ng106\nsg19\n(dp112\nsg21\n(g3\n(L11L\nttp113\nsg23\nI00\nsbsg24\nL11L\nsg25\nS\'Panko crusted crab cakes\'\np114\nsbag2\n(g3\ng4\nNtRp115\n(dp116\ng7\nL2L\nsg8\nS\'Assorted baby lettuces, \\nMustardy vinaigrette\'\np117\nsg10\ng2\n(g11\ng4\nNtRp118\n(dp119\ng14\ng3\nsg15\nI00\nsg16\n(dp120\nsg18\ng115\nsg19\n(dp121\nsg21\n(g3\n(L12L\nttp122\nsg23\nI00\nsbsg24\nL12L\nsg25\nS\'Black bean, mango, quinoa salad\'\np123\nsbag2\n(g3\ng4\nNtRp124\n(dp125\ng7\nL2L\nsg8\nS\'Chickpea gravy, \\nFire-roasted wild mushroom\'\np126\nsg10\ng2\n(g11\ng4\nNtRp127\n(dp128\ng14\ng3\nsg15\nI00\nsg16\n(dp129\nsg18\ng124\nsg19\n(dp130\nsg21\n(g3\n(L13L\nttp131\nsg23\nI00\nsbsg24\nL13L\nsg25\nS\'Crispy bareley rissotto and vegetable wedges\'\np132\nsbag2\n(g3\ng4\nNtRp133\n(dp134\ng7\nL2L\nsg8\nS\'Mogolian chicken curry\'\np135\nsg10\ng2\n(g11\ng4\nNtRp136\n(dp137\ng14\ng3\nsg15\nI00\nsg16\n(dp138\nsg18\ng133\nsg19\n(dp139\nsg21\n(g3\n(L14L\nttp140\nsg23\nI00\nsbsg24\nL14L\nsg25\nS\'Kori Gassi\'\np141\nsbag2\n(g3\ng4\nNtRp142\n(dp143\ng7\nL2L\nsg8\nS\'Yellow lentils\'\np144\nsg10\ng2\n(g11\ng4\nNtRp145\n(dp146\ng14\ng3\nsg15\nI00\nsg16\n(dp147\nsg18\ng142\nsg19\n(dp148\nsg21\n(g3\n(L15L\nttp149\nsg23\nI00\nsbsg24\nL15L\nsg25\nS\'Tarka Daal\'\np150\nsbag2\n(g3\ng4\nNtRp151\n(dp152\ng7\nL2L\nsg8\nS\'Potato and cauliflower\'\np153\nsg10\ng2\n(g11\ng4\nNtRp154\n(dp155\ng14\ng3\nsg15\nI00\nsg16\n(dp156\nsg18\ng151\nsg19\n(dp157\nsg21\n(g3\n(L16L\nttp158\nsg23\nI00\nsbsg24\nL16L\nsg25\nS\'Aloo Gobi\'\np159\nsbag2\n(g3\ng4\nNtRp160\n(dp161\ng7\nL2L\nsg8\nS\'\'\nsg10\ng2\n(g11\ng4\nNtRp162\n(dp163\ng14\ng3\nsg15\nI00\nsg16\n(dp164\nsg18\ng160\nsg19\n(dp165\nsg21\n(g3\n(L17L\nttp166\nsg23\nI00\nsbsg24\nL17L\nsg25\nS\'Basmati steamed rice and garlic naan\'\np167\nsbag2\n(g3\ng4\nNtRp168\n(dp169\ng7\nL2L\nsg8\nS\'\'\nsg10\ng2\n(g11\ng4\nNtRp170\n(dp171\ng14\ng3\nsg15\nI00\nsg16\n(dp172\nsg18\ng168\nsg19\n(dp173\nsg21\n(g3\n(L18L\nttp174\nsg23\nI00\nsbsg24\nL18L\nsg25\nS\'Tamarine and mint chutney\'\np175\nsbag2\n(g3\ng4\nNtRp176\n(dp177\ng7\nL5L\nsg8\nS\'meal meal\'\np178\nsg10\ng2\n(g11\ng4\nNtRp179\n(dp180\ng14\ng3\nsg15\nI00\nsg16\n(dp181\nsg18\ng176\nsg19\n(dp182\nsg21\n(g3\n(L23L\nttp183\nsg23\nI00\nsbsg24\nL23L\nsg25\nS\'working out meal and this is crazy cause its dairy\'\np184\nsbag2\n(g3\ng4\nNtRp185\n(dp186\ng7\nL4L\nsg8\nS\'sldkf;sldkf;slkdfsdf this is a test\'\np187\nsg10\ng2\n(g11\ng4\nNtRp188\n(dp189\ng14\ng3\nsg15\nI00\nsg16\n(dp190\nsg18\ng185\nsg19\n(dp191\nsg21\n(g3\n(L21L\nttp192\nsg23\nI00\nsbsg24\nL21L\nsg25\nS\'another fisj\'\np193\nsbag2\n(g3\ng4\nNtRp194\n(dp195\ng7\nL4L\nsg8\nS\'some ifpsodo;s\'\np196\nsg10\ng2\n(g11\ng4\nNtRp197\n(dp198\ng14\ng3\nsg15\nI00\nsg16\n(dp199\nsg18\ng194\nsg19\n(dp200\nsg21\n(g3\n(L22L\nttp201\nsg23\nI00\nsbsg24\nL22L\nsg25\nS\'dish 3\'\np202\nsbag2\n(g3\ng4\nNtRp203\n(dp204\ng7\nL3L\nsg8\nS\'line 1 Saut\\xe9ed\\nline 2\\nline 3\'\np205\nsg10\ng2\n(g11\ng4\nNtRp206\n(dp207\ng14\ng3\nsg15\nI00\nsg16\n(dp208\nsg18\ng203\nsg19\n(dp209\nsg21\n(g3\n(L24L\nttp210\nsg23\nI00\nsbsg24\nL24L\nsg25\nS\'long dish name bbb\'\np211\nsbag2\n(g3\ng4\nNtRp212\n(dp213\ng7\nL6L\nsg8\nS\'something\'\np214\nsg10\ng2\n(g11\ng4\nNtRp215\n(dp216\ng14\ng3\nsg15\nI00\nsg16\n(dp217\nsg18\ng212\nsg19\n(dp218\nsg21\n(g3\n(L25L\nttp219\nsg23\nI00\nsbsg24\nL25L\nsg25\nS\'another test fj\'\np220\nsbag2\n(g3\ng4\nNtRp221\n(dp222\ng7\nL6L\nsg8\nS\'sldkflskdfd\'\np223\nsg10\ng2\n(g11\ng4\nNtRp224\n(dp225\ng14\ng3\nsg15\nI00\nsg16\n(dp226\nsg18\ng221\nsg19\n(dp227\nsg21\n(g3\n(L26L\nttp228\nsg23\nI00\nsbsg24\nL26L\nsg25\nS\'anotehr lsldk Saut\\xc3\\xa9ed\'\np229\nsbag2\n(g3\ng4\nNtRp230\n(dp231\ng7\nL6L\nsg8\nS\'sdfsdf\'\np232\nsg10\ng2\n(g11\ng4\nNtRp233\n(dp234\ng14\ng3\nsg15\nI00\nsg16\n(dp235\nsg18\ng230\nsg19\n(dp236\nsg21\n(g3\n(L28L\nttp237\nsg23\nI00\nsbsg24\nL28L\nsg25\nS\'aaaaa\'\np238\nsbag2\n(g3\ng4\nNtRp239\n(dp240\ng7\nL7L\nsg8\nS\'line 1\\nline 2\\nline 3\'\np241\nsg10\ng2\n(g11\ng4\nNtRp242\n(dp243\ng14\ng3\nsg15\nI00\nsg16\n(dp244\nsg18\ng239\nsg19\n(dp245\nsg21\n(g3\n(L29L\nttp246\nsg23\nI00\nsbsg24\nL29L\nsg25\nS\'dish 1 etc Saut\\xc3\\xa9ed\'\np247\nsbag2\n(g3\ng4\nNtRp248\n(dp249\ng7\nL8L\nsg8\nS\'name\'\np250\nsg10\ng2\n(g11\ng4\nNtRp251\n(dp252\ng14\ng3\nsg15\nI00\nsg16\n(dp253\nsg18\ng248\nsg19\n(dp254\nsg21\n(g3\n(L30L\nttp255\nsg23\nI00\nsbsg24\nL30L\nsg25\nS\'test test test\'\np256\nsbag2\n(g3\ng4\nNtRp257\n(dp258\ng7\nL9L\nsg8\nS\'sldflsdkf\'\np259\nsg10\ng2\n(g11\ng4\nNtRp260\n(dp261\ng14\ng3\nsg15\nI00\nsg16\n(dp262\nsg18\ng257\nsg19\n(dp263\nsg21\n(g3\n(L31L\nttp264\nsg23\nI00\nsbsg24\nL31L\nsg25\nS\'some d Saut\\xc3\\xa9ed \'\np265\nsba.'
p6
s.